ccollections
defaultdict
p0
(c__builtin__
int
p1
tp2
Rp3
I1
I40397
sI1048579
I76
sI1048580
I1559
sI6815750
I41
sI2097159
I682
sI2097160
I6
sI6291465
I8
sI1048586
I477
sI1048588
I731
sI3670029
I1
sI2097166
I77
sI2621456
I504
sI524307
I404
sI2097172
I36
sI25
I14137
sI26
I10302
sI4194331
I3
sI29
I62429
sI30
I7323
sI3145760
I128
sI35
I13905
sI1048612
I6
sI2621477
I58
sI38
I2464
sI6291495
I8
sI104749
I1808
sI1660247
I176
sI5592408
I6
s.