(dp0
S'imports'
p1
c__builtin__
set
p2
((lp3
tp4
Rp5
sS'code'
p6
S'def quickSort(alist):\n    quickSortHelper(alist,0,len(alist)-1)\n\ndef quickSortHelper(alist,first,last):\n    if first<last:\n        splitpoint = partition(alist,first,last)\n        quickSortHelper(alist,first,splitpoint-1)\n        quickSortHelper(alist,splitpoint+1,last)\n\n\ndef partition(alist,first,last):\n    pivotvalue = alist[first]\n    leftmark = first+1\n    rightmark = last\n'
p7
sS'methods'
p8
(lp9
S'quickSortHelper'
p10
aS'partition'
p11
ag10
ag10
aS'len'
p12
as.